; Function Attrs: mustprogress nounwind uwtable
define internal void @"_ZN4absl12lts_2024072222internal_any_invocable23RemoteManagerNontrivialIZN17grpc_event_engine12experimental12AresResolver22OnHostbynameDoneLockedEPviiP7hostentE3$_0EEvNS1_14FunctionToCallEPNS1_15TypeErasedStateESC_"(i1 noundef zeroext %0, ptr noundef readonly captures(none) %1, ptr noundef writeonly captures(none) %2) #11 personality ptr @__gxx_personality_v0 {
  %4 = load ptr, ptr %1, align 16, !tbaa !21
  br i1 %0, label %6, label %5

5:                                                ; preds = %3
  store ptr %4, ptr %2, align 16, !tbaa !21
  br label %19

6:                                                ; preds = %3
  %7 = icmp eq ptr %4, null
  br i1 %7, label %19, label %8

8:                                                ; preds = %6
  %9 = getelementptr inbounds nuw i8, ptr %4, i64 32
  %10 = load ptr, ptr %9, align 8, !tbaa !123
  %.not.i.i.i.i = icmp eq ptr %10, null
  br i1 %.not.i.i.i.i, label %"_ZZN17grpc_event_engine12experimental12AresResolver22OnHostbynameDoneLockedEPviiP7hostentEN3$_0D2Ev.exit", label %11

11:                                               ; preds = %8
  %12 = getelementptr inbounds nuw i8, ptr %4, i64 48
  %13 = load ptr, ptr %12, align 8, !tbaa !127
  %14 = ptrtoint ptr %13 to i64
  %15 = ptrtoint ptr %10 to i64
  %16 = sub i64 %14, %15
  tail call void @_ZdlPvm(ptr noundef nonnull %10, i64 noundef %16) #38
  br label %"_ZZN17grpc_event_engine12experimental12AresResolver22OnHostbynameDoneLockedEPviiP7hostentEN3$_0D2Ev.exit"

"_ZZN17grpc_event_engine12experimental12AresResolver22OnHostbynameDoneLockedEPviiP7hostentEN3$_0D2Ev.exit": ; preds = %8, %11
  %17 = getelementptr inbounds nuw i8, ptr %4, i64 16
  %18 = load ptr, ptr %17, align 16, !tbaa !108
  tail call void %18(i1 noundef zeroext true, ptr noundef nonnull align 16 dereferenceable(56) %4, ptr noundef nonnull align 16 dereferenceable(56) %4) #34
  tail call void @_ZdlPvm(ptr noundef nonnull %4, i64 noundef 64) #38
  br label %19

19:                                               ; preds = %6, %"_ZZN17grpc_event_engine12experimental12AresResolver22OnHostbynameDoneLockedEPviiP7hostentEN3$_0D2Ev.exit", %5
  ret void
}